target datalayout = "e-m:e-p270:32:32-p271:32:32-p272:64:64-i64:64-i128:128-f80:128-n8:16:32:64-S128"
target triple = "x86_64-pc-linux-gnu"

%"class.llvm::Value" = type { i8, i8, i16, i32, ptr, ptr }
%"class.llvm::Use" = type { ptr, ptr, ptr, ptr }
%"struct.llvm::DescriptorInfo" = type { i64 }

; Function Attrs: mustprogress nounwind uwtable
define dso_local void @_ZN4llvm4UserdlEPv(ptr noundef %0) #0 align 2 {
  %2 = alloca ptr, align 8
  %3 = alloca ptr, align 8
  %4 = alloca ptr, align 8
  %5 = alloca ptr, align 8
  %6 = alloca ptr, align 8
  %7 = alloca ptr, align 8
  %8 = alloca ptr, align 8
  store ptr %0, ptr %2, align 8
  %9 = load ptr, ptr %2, align 8
  store ptr %9, ptr %3, align 8
  %10 = load ptr, ptr %3, align 8
  %11 = getelementptr inbounds nuw %"class.llvm::Value", ptr %10, i32 0, i32 3
  %12 = load i32, ptr %11, align 4
  %13 = lshr i32 %12, 30
  %14 = and i32 %13, 1
  %15 = icmp ne i32 %14, 0
  br i1 %15, label %16, label %30

16:                                               ; preds = %1
  %17 = load ptr, ptr %2, align 8
  %18 = getelementptr inbounds ptr, ptr %17, i64 -1
  store ptr %18, ptr %4, align 8
  %19 = load ptr, ptr %4, align 8
  %20 = load ptr, ptr %19, align 8
  %21 = load ptr, ptr %4, align 8
  %22 = load ptr, ptr %21, align 8
  %23 = load ptr, ptr %3, align 8
  %24 = getelementptr inbounds nuw %"class.llvm::Value", ptr %23, i32 0, i32 3
  %25 = load i32, ptr %24, align 4
  %26 = and i32 %25, 134217727
  %27 = sext i32 %26 to i64
  %28 = getelementptr inbounds %"class.llvm::Use", ptr %22, i64 %27
  call void @_ZN4llvm3Use3zapEPS0_PKS0_b(ptr noundef %20, ptr noundef %28, i1 noundef zeroext true)
  %29 = load ptr, ptr %4, align 8
  call void @_ZdlPv(ptr noundef %29) #8
  br label %81

30:                                               ; preds = %1
  %31 = load ptr, ptr %3, align 8
  %32 = getelementptr inbounds nuw %"class.llvm::Value", ptr %31, i32 0, i32 3
  %33 = load i32, ptr %32, align 4
  %34 = lshr i32 %33, 31
  %35 = icmp ne i32 %34, 0
  br i1 %35, label %36, label %62

36:                                               ; preds = %30
  %37 = load ptr, ptr %2, align 8
  %38 = load ptr, ptr %3, align 8
  %39 = getelementptr inbounds nuw %"class.llvm::Value", ptr %38, i32 0, i32 3
  %40 = load i32, ptr %39, align 4
  %41 = and i32 %40, 134217727
  %42 = sext i32 %41 to i64
  %43 = sub i64 0, %42
  %44 = getelementptr inbounds %"class.llvm::Use", ptr %37, i64 %43
  store ptr %44, ptr %5, align 8
  %45 = load ptr, ptr %5, align 8
  %46 = load ptr, ptr %5, align 8
  %47 = load ptr, ptr %3, align 8
  %48 = getelementptr inbounds nuw %"class.llvm::Value", ptr %47, i32 0, i32 3
  %49 = load i32, ptr %48, align 4
  %50 = and i32 %49, 134217727
  %51 = sext i32 %50 to i64
  %52 = getelementptr inbounds %"class.llvm::Use", ptr %46, i64 %51
  call void @_ZN4llvm3Use3zapEPS0_PKS0_b(ptr noundef %45, ptr noundef %52, i1 noundef zeroext false)
  %53 = load ptr, ptr %5, align 8
  %54 = getelementptr inbounds %"struct.llvm::DescriptorInfo", ptr %53, i64 -1
  store ptr %54, ptr %6, align 8
  %55 = load ptr, ptr %6, align 8
  %56 = load ptr, ptr %6, align 8
  %57 = getelementptr inbounds nuw %"struct.llvm::DescriptorInfo", ptr %56, i32 0, i32 0
  %58 = load i64, ptr %57, align 8
  %59 = sub i64 0, %58
  %60 = getelementptr inbounds i8, ptr %55, i64 %59
  store ptr %60, ptr %7, align 8
  %61 = load ptr, ptr %7, align 8
  call void @_ZdlPv(ptr noundef %61) #8
  br label %80

62:                                               ; preds = %30
  %63 = load ptr, ptr %2, align 8
  %64 = load ptr, ptr %3, align 8
  %65 = getelementptr inbounds nuw %"class.llvm::Value", ptr %64, i32 0, i32 3
  %66 = load i32, ptr %65, align 4
  %67 = and i32 %66, 134217727
  %68 = sext i32 %67 to i64
  %69 = sub i64 0, %68
  %70 = getelementptr inbounds %"class.llvm::Use", ptr %63, i64 %69
  store ptr %70, ptr %8, align 8
  %71 = load ptr, ptr %8, align 8
  %72 = load ptr, ptr %8, align 8
  %73 = load ptr, ptr %3, align 8
  %74 = getelementptr inbounds nuw %"class.llvm::Value", ptr %73, i32 0, i32 3
  %75 = load i32, ptr %74, align 4
  %76 = and i32 %75, 134217727
  %77 = sext i32 %76 to i64
  %78 = getelementptr inbounds %"class.llvm::Use", ptr %72, i64 %77
  call void @_ZN4llvm3Use3zapEPS0_PKS0_b(ptr noundef %71, ptr noundef %78, i1 noundef zeroext false)
  %79 = load ptr, ptr %8, align 8
  call void @_ZdlPv(ptr noundef %79) #8
  br label %80

80:                                               ; preds = %62, %36
  br label %81

81:                                               ; preds = %80, %16
  ret void
}