; Function Attrs: mustprogress nounwind uwtable
define dso_local void @_ZN4llvm4UserdlEPv(ptr noundef %0) local_unnamed_addr #0 align 2 {
  %2 = getelementptr inbounds nuw i8, ptr %0, i64 4
  %3 = load i32, ptr %2, align 4
  %4 = and i32 %3, 1073741824
  %.not = icmp eq i32 %4, 0
  br i1 %.not, label %11, label %5

5:                                                ; preds = %1
  %6 = getelementptr inbounds i8, ptr %0, i64 -8
  %7 = load ptr, ptr %6, align 8
  %8 = and i32 %3, 134217727
  %9 = zext nneg i32 %8 to i64
  %10 = getelementptr inbounds %"class.llvm::Use", ptr %7, i64 %9
  tail call void @_ZN4llvm3Use3zapEPS0_PKS0_b(ptr noundef %7, ptr noundef %10, i1 noundef zeroext true) #8
  tail call void @_ZdlPv(ptr noundef nonnull %6) #8
  br label %22

11:                                               ; preds = %1
  %.not23 = icmp sgt i32 %3, -1
  %12 = and i32 %3, 134217727
  %13 = zext nneg i32 %12 to i64
  %14 = sub nsw i64 0, %13
  %15 = getelementptr inbounds %"class.llvm::Use", ptr %0, i64 %14
  tail call void @_ZN4llvm3Use3zapEPS0_PKS0_b(ptr noundef %15, ptr noundef nonnull %0, i1 noundef zeroext false) #8
  br i1 %.not23, label %21, label %16

16:                                               ; preds = %11
  %17 = getelementptr inbounds i8, ptr %15, i64 -8
  %18 = load i64, ptr %17, align 8
  %19 = sub i64 0, %18
  %20 = getelementptr inbounds i8, ptr %17, i64 %19
  tail call void @_ZdlPv(ptr noundef nonnull %20) #8
  br label %22

21:                                               ; preds = %11
  tail call void @_ZdlPv(ptr noundef %15) #8
  br label %22

22:                                               ; preds = %16, %21, %5
  ret void
}